ccopy_reg
_reconstructor
p0
(copennmt.models.catalog
Transformer
p1
c__builtin__
object
p2
Ntp3
Rp4
(dp5
S'features_inputter'
p6
g0
(copennmt.inputters.text_inputter
WordEmbedder
p7
g2
Ntp8
Rp9
(dp10
S'embedding_size'
p11
I512
sS'tokenizer'
p12
g0
(copennmt.tokenizers.tokenizer
SpaceTokenizer
p13
g2
Ntp14
Rp15
(dp16
S'_config'
p17
(dp18
sS'_configuration_file_key'
p19
NsbsS'dtype'
p20
g0
(ctensorflow.python.framework.dtypes
DType
p21
g2
Ntp22
Rp23
(dp24
S'_type_enum'
p25
I1
sbsS'dropout'
p26
F0.0
sS'trainable'
p27
I01
sS'process_hooks'
p28
(lp29
sS'case_insensitive_embeddings'
p30
I01
sS'volatile'
p31
c__builtin__
set
p32
((lp33
tp34
Rp35
sS'embedding_file_key'
p36
NsS'embedding_file_with_header'
p37
I01
sS'num_oov_buckets'
p38
I1
sS'vocabulary_file_key'
p39
S'source_words_vocabulary'
p40
sbsS'name'
p41
S'transformer'
p42
sS'source_inputter'
p43
g9
sg20
g23
sS'encoder'
p44
g0
(copennmt.encoders.self_attention_encoder
SelfAttentionEncoder
p45
g2
Ntp46
Rp47
(dp48
S'attention_dropout'
p49
F0.1
sS'position_encoder'
p50
g0
(copennmt.layers.position
SinusoidalPositionEncoder
p51
g2
Ntp52
Rp53
(dp54
S'reducer'
p55
g0
(copennmt.layers.reducer
SumReducer
p56
g2
Ntp57
Rp58
sbsS'ffn_inner_dim'
p59
I2048
sS'relu_dropout'
p60
F0.1
sg26
F0.1
sS'num_heads'
p61
I8
sS'num_units'
p62
I512
sS'num_layers'
p63
I6
sbsS'target_inputter'
p64
g0
(g7
g2
Ntp65
Rp66
(dp67
g11
I512
sg12
g15
sg20
g23
sg26
F0.0
sg27
I01
sg28
(lp68
copennmt.models.sequence_to_sequence
shift_target_sequence
p69
asg30
I01
sg31
g32
((lp70
tp71
Rp72
sg36
Nsg37
I01
sg38
I1
sg39
S'target_words_vocabulary'
p73
sbsS'decoder'
p74
g0
(copennmt.decoders.self_attention_decoder
SelfAttentionDecoder
p75
g2
Ntp76
Rp77
(dp78
g49
F0.1
sg50
g53
sg59
I2048
sg60
F0.1
sg26
F0.1
sg61
I8
sg62
I512
sg63
I6
sbsS'labels_inputter'
p79
g66
sS'daisy_chain_variables'
p80
I01
sb.